libopenmpt.so.0 libopenmpt0 #MINVER#
* Build-Depends-Package: libopenmpt-dev
 _ZN7openmpt10module_ext13get_interfaceERKNSt7__cxx1112basic_stringIcSt11char_traitsIcESaIcEEE@Base 0.2.7025~beta20.1
 _ZN7openmpt10module_extC1EPKcjRSoRKSt3mapINSt7__cxx1112basic_stringIcSt11char_traitsIcESaIcEEESA_St4lessISA_ESaISt4pairIKSA_SA_EEE@Base 0.2.7025~beta20.1
 _ZN7openmpt10module_extC1EPKvjRSoRKSt3mapINSt7__cxx1112basic_stringIcSt11char_traitsIcESaIcEEESA_St4lessISA_ESaISt4pairIKSA_SA_EEE@Base 0.2.7025~beta20.1
 _ZN7openmpt10module_extC1ERKS0_@Base 0.2.7025~beta20.1
 _ZN7openmpt10module_extC1ERKSt6vectorIcSaIcEERSoRKSt3mapINSt7__cxx1112basic_stringIcSt11char_traitsIcES2_EESC_St4lessISC_ESaISt4pairIKSC_SC_EEE@Base 0.2.7025~beta20.1
 _ZN7openmpt10module_extC1ERSiRSoRKSt3mapINSt7__cxx1112basic_stringIcSt11char_traitsIcESaIcEEES9_St4lessIS9_ESaISt4pairIKS9_S9_EEE@Base 0.2.7025~beta20.1
 _ZN7openmpt10module_extC2EPKcjRSoRKSt3mapINSt7__cxx1112basic_stringIcSt11char_traitsIcESaIcEEESA_St4lessISA_ESaISt4pairIKSA_SA_EEE@Base 0.2.7025~beta20.1
 _ZN7openmpt10module_extC2EPKvjRSoRKSt3mapINSt7__cxx1112basic_stringIcSt11char_traitsIcESaIcEEESA_St4lessISA_ESaISt4pairIKSA_SA_EEE@Base 0.2.7025~beta20.1
 _ZN7openmpt10module_extC2ERKS0_@Base 0.2.7025~beta20.1
 _ZN7openmpt10module_extC2ERKSt6vectorIcSaIcEERSoRKSt3mapINSt7__cxx1112basic_stringIcSt11char_traitsIcES2_EESC_St4lessISC_ESaISt4pairIKSC_SC_EEE@Base 0.2.7025~beta20.1
 _ZN7openmpt10module_extC2ERSiRSoRKSt3mapINSt7__cxx1112basic_stringIcSt11char_traitsIcESaIcEEES9_St4lessIS9_ESaISt4pairIKS9_S9_EEE@Base 0.2.7025~beta20.1
 _ZN7openmpt10module_extD0Ev@Base 0.2.7025~beta20.1
 _ZN7openmpt10module_extD1Ev@Base 0.2.7025~beta20.1
 _ZN7openmpt10module_extD2Ev@Base 0.2.7025~beta20.1
 _ZN7openmpt10module_extaSERKS0_@Base 0.2.7025~beta20.1
 _ZN7openmpt16get_core_versionEv@Base 0.2.7025~beta20.1
 _ZN7openmpt19get_library_versionEv@Base 0.2.7025~beta20.1
 _ZN7openmpt22could_open_propabilityERSidRSo@Base 0.2.7025~beta20.1
 _ZN7openmpt22is_extension_supportedERKNSt7__cxx1112basic_stringIcSt11char_traitsIcESaIcEEE@Base 0.2.7025~beta20.1
 _ZN7openmpt24get_supported_extensionsB5cxx11Ev@Base 0.2.7025~beta20.1
 _ZN7openmpt6module14select_subsongEi@Base 0.2.7025~beta20.1
 _ZN7openmpt6module16set_render_paramEii@Base 0.2.7025~beta20.1
 _ZN7openmpt6module16set_repeat_countEi@Base 0.2.7025~beta20.1
 _ZN7openmpt6module20set_position_secondsEd@Base 0.2.7025~beta20.1
 _ZN7openmpt6module21read_interleaved_quadEijPf@Base 0.2.7025~beta20.1
 _ZN7openmpt6module21read_interleaved_quadEijPs@Base 0.2.7025~beta20.1
 _ZN7openmpt6module22set_position_order_rowEii@Base 0.2.7025~beta20.1
 _ZN7openmpt6module23read_interleaved_stereoEijPf@Base 0.2.7025~beta20.1
 _ZN7openmpt6module23read_interleaved_stereoEijPs@Base 0.2.7025~beta20.1
 _ZN7openmpt6module4readEijPf@Base 0.2.7025~beta20.1
 _ZN7openmpt6module4readEijPfS1_@Base 0.2.7025~beta20.1
 _ZN7openmpt6module4readEijPfS1_S1_S1_@Base 0.2.7025~beta20.1
 _ZN7openmpt6module4readEijPs@Base 0.2.7025~beta20.1
 _ZN7openmpt6module4readEijPsS1_@Base 0.2.7025~beta20.1
 _ZN7openmpt6module4readEijPsS1_S1_S1_@Base 0.2.7025~beta20.1
 _ZN7openmpt6module7ctl_setERKNSt7__cxx1112basic_stringIcSt11char_traitsIcESaIcEEES8_@Base 0.2.7025~beta20.1
 _ZN7openmpt6module8set_implEPNS_11module_implE@Base 0.2.7025~beta20.1
 _ZN7openmpt6moduleC1EPKcS2_RSoRKSt3mapINSt7__cxx1112basic_stringIcSt11char_traitsIcESaIcEEESA_St4lessISA_ESaISt4pairIKSA_SA_EEE@Base 0.2.7025~beta20.1
 _ZN7openmpt6moduleC1EPKcjRSoRKSt3mapINSt7__cxx1112basic_stringIcSt11char_traitsIcESaIcEEESA_St4lessISA_ESaISt4pairIKSA_SA_EEE@Base 0.2.7025~beta20.1
 _ZN7openmpt6moduleC1EPKhS2_RSoRKSt3mapINSt7__cxx1112basic_stringIcSt11char_traitsIcESaIcEEESA_St4lessISA_ESaISt4pairIKSA_SA_EEE@Base 0.2.7025~beta20.1
 _ZN7openmpt6moduleC1EPKhjRSoRKSt3mapINSt7__cxx1112basic_stringIcSt11char_traitsIcESaIcEEESA_St4lessISA_ESaISt4pairIKSA_SA_EEE@Base 0.2.7025~beta20.1
 _ZN7openmpt6moduleC1EPKvjRSoRKSt3mapINSt7__cxx1112basic_stringIcSt11char_traitsIcESaIcEEESA_St4lessISA_ESaISt4pairIKSA_SA_EEE@Base 0.2.7025~beta20.1
 _ZN7openmpt6moduleC1ERKS0_@Base 0.2.7025~beta20.1
 _ZN7openmpt6moduleC1ERKSt6vectorIcSaIcEERSoRKSt3mapINSt7__cxx1112basic_stringIcSt11char_traitsIcES2_EESC_St4lessISC_ESaISt4pairIKSC_SC_EEE@Base 0.2.7025~beta20.1
 _ZN7openmpt6moduleC1ERKSt6vectorIhSaIhEERSoRKSt3mapINSt7__cxx1112basic_stringIcSt11char_traitsIcESaIcEEESD_St4lessISD_ESaISt4pairIKSD_SD_EEE@Base 0.2.7025~beta20.1
 _ZN7openmpt6moduleC1ERSiRSoRKSt3mapINSt7__cxx1112basic_stringIcSt11char_traitsIcESaIcEEES9_St4lessIS9_ESaISt4pairIKS9_S9_EEE@Base 0.2.7025~beta20.1
 _ZN7openmpt6moduleC1Ev@Base 0.2.7025~beta20.1
 _ZN7openmpt6moduleC2EPKcS2_RSoRKSt3mapINSt7__cxx1112basic_stringIcSt11char_traitsIcESaIcEEESA_St4lessISA_ESaISt4pairIKSA_SA_EEE@Base 0.2.7025~beta20.1
 _ZN7openmpt6moduleC2EPKcjRSoRKSt3mapINSt7__cxx1112basic_stringIcSt11char_traitsIcESaIcEEESA_St4lessISA_ESaISt4pairIKSA_SA_EEE@Base 0.2.7025~beta20.1
 _ZN7openmpt6moduleC2EPKhS2_RSoRKSt3mapINSt7__cxx1112basic_stringIcSt11char_traitsIcESaIcEEESA_St4lessISA_ESaISt4pairIKSA_SA_EEE@Base 0.2.7025~beta20.1
 _ZN7openmpt6moduleC2EPKhjRSoRKSt3mapINSt7__cxx1112basic_stringIcSt11char_traitsIcESaIcEEESA_St4lessISA_ESaISt4pairIKSA_SA_EEE@Base 0.2.7025~beta20.1
 _ZN7openmpt6moduleC2EPKvjRSoRKSt3mapINSt7__cxx1112basic_stringIcSt11char_traitsIcESaIcEEESA_St4lessISA_ESaISt4pairIKSA_SA_EEE@Base 0.2.7025~beta20.1
 _ZN7openmpt6moduleC2ERKS0_@Base 0.2.7025~beta20.1
 _ZN7openmpt6moduleC2ERKSt6vectorIcSaIcEERSoRKSt3mapINSt7__cxx1112basic_stringIcSt11char_traitsIcES2_EESC_St4lessISC_ESaISt4pairIKSC_SC_EEE@Base 0.2.7025~beta20.1
 _ZN7openmpt6moduleC2ERKSt6vectorIhSaIhEERSoRKSt3mapINSt7__cxx1112basic_stringIcSt11char_traitsIcESaIcEEESD_St4lessISD_ESaISt4pairIKSD_SD_EEE@Base 0.2.7025~beta20.1
 _ZN7openmpt6moduleC2ERSiRSoRKSt3mapINSt7__cxx1112basic_stringIcSt11char_traitsIcESaIcEEES9_St4lessIS9_ESaISt4pairIKS9_S9_EEE@Base 0.2.7025~beta20.1
 _ZN7openmpt6moduleC2Ev@Base 0.2.7025~beta20.1
 _ZN7openmpt6moduleD0Ev@Base 0.2.7025~beta20.1
 _ZN7openmpt6moduleD1Ev@Base 0.2.7025~beta20.1
 _ZN7openmpt6moduleD2Ev@Base 0.2.7025~beta20.1
 _ZN7openmpt6moduleaSERKS0_@Base 0.2.7025~beta20.1
 _ZN7openmpt6string3getERKNSt7__cxx1112basic_stringIcSt11char_traitsIcESaIcEEE@Base 0.2.7025~beta20.1
 _ZN7openmpt9exceptionC1ERKNSt7__cxx1112basic_stringIcSt11char_traitsIcESaIcEEE@Base 0.2.7025~beta20.1
 _ZN7openmpt9exceptionC2ERKNSt7__cxx1112basic_stringIcSt11char_traitsIcESaIcEEE@Base 0.2.7025~beta20.1
 _ZN7openmpt9exceptionD0Ev@Base 0.2.7025~beta20.1
 _ZN7openmpt9exceptionD1Ev@Base 0.2.7025~beta20.1
 _ZN7openmpt9exceptionD2Ev@Base 0.2.7025~beta20.1
 _ZNK7openmpt6module12get_metadataERKNSt7__cxx1112basic_stringIcSt11char_traitsIcESaIcEEE@Base 0.2.7025~beta20.1
 _ZNK7openmpt6module14get_num_ordersEv@Base 0.2.7025~beta20.1
 _ZNK7openmpt6module15get_current_rowEv@Base 0.2.7025~beta20.1
 _ZNK7openmpt6module15get_num_samplesEv@Base 0.2.7025~beta20.1
 _ZNK7openmpt6module15get_order_namesB5cxx11Ev@Base 0.2.7025~beta20.1
 _ZNK7openmpt6module16get_num_channelsEv@Base 0.2.7025~beta20.1
 _ZNK7openmpt6module16get_num_patternsEv@Base 0.2.7025~beta20.1
 _ZNK7openmpt6module16get_num_subsongsEv@Base 0.2.7025~beta20.1
 _ZNK7openmpt6module16get_render_paramEi@Base 0.2.7025~beta20.1
 _ZNK7openmpt6module16get_repeat_countEv@Base 0.2.7025~beta20.1
 _ZNK7openmpt6module16get_sample_namesB5cxx11Ev@Base 0.2.7025~beta20.1
 _ZNK7openmpt6module17get_channel_namesB5cxx11Ev@Base 0.2.7025~beta20.1
 _ZNK7openmpt6module17get_current_orderEv@Base 0.2.7025~beta20.1
 _ZNK7openmpt6module17get_current_speedEv@Base 0.2.7025~beta20.1
 _ZNK7openmpt6module17get_current_tempoEv@Base 0.2.7025~beta20.1
 _ZNK7openmpt6module17get_metadata_keysB5cxx11Ev@Base 0.2.7025~beta20.1
 _ZNK7openmpt6module17get_order_patternEi@Base 0.2.7025~beta20.1
 _ZNK7openmpt6module17get_pattern_namesB5cxx11Ev@Base 0.2.7025~beta20.1
 _ZNK7openmpt6module17get_subsong_namesB5cxx11Ev@Base 0.2.7025~beta20.1
 _ZNK7openmpt6module19get_current_patternEv@Base 0.2.7025~beta20.1
 _ZNK7openmpt6module19get_num_instrumentsEv@Base 0.2.7025~beta20.1
 _ZNK7openmpt6module20get_duration_secondsEv@Base 0.2.7025~beta20.1
 _ZNK7openmpt6module20get_instrument_namesB5cxx11Ev@Base 0.2.7025~beta20.1
 _ZNK7openmpt6module20get_pattern_num_rowsEi@Base 0.2.7025~beta20.1
 _ZNK7openmpt6module20get_position_secondsEv@Base 0.2.7025~beta20.1
 _ZNK7openmpt6module26format_pattern_row_channelB5cxx11Eiiijb@Base 0.2.7025~beta20.1
 _ZNK7openmpt6module27get_current_channel_vu_leftEi@Base 0.2.7025~beta20.1
 _ZNK7openmpt6module27get_current_channel_vu_monoEi@Base 0.2.7025~beta20.1
 _ZNK7openmpt6module28get_current_channel_vu_rightEi@Base 0.2.7025~beta20.1
 _ZNK7openmpt6module28get_current_playing_channelsEv@Base 0.2.7025~beta20.1
 _ZNK7openmpt6module29highlight_pattern_row_channelB5cxx11Eiiijb@Base 0.2.7025~beta20.1
 _ZNK7openmpt6module31get_pattern_row_channel_commandEiiii@Base 0.2.7025~beta20.1
 _ZNK7openmpt6module32get_current_channel_vu_rear_leftEi@Base 0.2.7025~beta20.1
 _ZNK7openmpt6module33get_current_channel_vu_rear_rightEi@Base 0.2.7025~beta20.1
 _ZNK7openmpt6module34format_pattern_row_channel_commandB5cxx11Eiiii@Base 0.2.7025~beta20.1
 _ZNK7openmpt6module37highlight_pattern_row_channel_commandB5cxx11Eiiii@Base 0.2.7025~beta20.1
 _ZNK7openmpt6module7ctl_getERKNSt7__cxx1112basic_stringIcSt11char_traitsIcESaIcEEE@Base 0.2.7025~beta20.1
 _ZNK7openmpt6module8get_ctlsB5cxx11Ev@Base 0.2.7025~beta20.1
 _ZNK7openmpt9exception4whatEv@Base 0.2.7025~beta20.1
 _ZNKSt5ctypeIcE8do_widenEc@Base 0.2.7025~beta20.1
 _ZNSt13_Bvector_baseISaIbEE13_M_deallocateEv@Base 0.2.7025~beta20.1
 _ZNSt14__shared_countILN9__gnu_cxx12_Lock_policyE1EEaSERKS2_@Base 0.2.7025~beta20.1
 _ZNSt16_Sp_counted_baseILN9__gnu_cxx12_Lock_policyE1EE10_M_releaseEv@Base 0.2.7025~beta20.1
 _ZNSt23mersenne_twister_engineIjLj32ELj624ELj397ELj31ELj2567483615ELj11ELj4294967295ELj7ELj2636928640ELj15ELj4022730752ELj18ELj1812433253EE4seedISt8seed_seqEENSt9enable_ifIXsrSt8is_classIT_E5valueEvE4typeERS5_@Base 0.2.7025~beta20.1
 _ZNSt23mersenne_twister_engineIjLj32ELj624ELj397ELj31ELj2567483615ELj11ELj4294967295ELj7ELj2636928640ELj15ELj4022730752ELj18ELj1812433253EEclEv@Base 0.2.7025~beta20.1
 _ZNSt26subtract_with_carry_engineIyLj48ELj5ELj12EEclEv@Base 0.2.7025~beta20.1
 _ZNSt6vectorINSt7__cxx1112basic_stringIcSt11char_traitsIcESaIcEEESaIS5_EE12emplace_backIJS5_EEEvDpOT_@Base 0.2.7025~beta20.1
 _ZNSt6vectorINSt7__cxx1112basic_stringIcSt11char_traitsIcESaIcEEESaIS5_EE19_M_emplace_back_auxIJRKS5_EEEvDpOT_@Base 0.2.7025~beta20.1
 _ZNSt6vectorINSt7__cxx1112basic_stringIcSt11char_traitsIcESaIcEEESaIS5_EE19_M_emplace_back_auxIJS5_EEEvDpOT_@Base 0.2.7025~beta20.1
 _ZNSt6vectorINSt7__cxx1112basic_stringIcSt11char_traitsIcESaIcEEESaIS5_EED1Ev@Base 0.2.7025~beta20.1
 _ZNSt6vectorINSt7__cxx1112basic_stringIcSt11char_traitsIcESaIcEEESaIS5_EED2Ev@Base 0.2.7025~beta20.1
 _ZNSt6vectorIPKcSaIS1_EE19_M_emplace_back_auxIJRKS1_EEEvDpOT_@Base 0.2.7025~beta20.1
 _ZNSt6vectorIPfSaIS0_EE17_M_default_appendEj@Base 0.2.7025~beta20.1
 _ZNSt6vectorIS_IbSaIbEESaIS1_EE17_M_default_appendEj@Base 0.2.7025~beta20.1
 _ZNSt6vectorIS_IbSaIbEESaIS1_EEaSERKS3_@Base 0.2.7025~beta20.1
 _ZNSt6vectorISt4pairIN7OpenMPT8LogLevelENSt7__cxx1112basic_stringIcSt11char_traitsIcESaIcEEEESaIS9_EE19_M_emplace_back_auxIJS9_EEEvDpOT_@Base 0.2.7025~beta20.1
 _ZNSt6vectorISt4pairIN7OpenMPT8LogLevelENSt7__cxx1112basic_stringIcSt11char_traitsIcESaIcEEEESaIS9_EED1Ev@Base 0.2.7025~beta20.1
 _ZNSt6vectorISt4pairIN7OpenMPT8LogLevelENSt7__cxx1112basic_stringIcSt11char_traitsIcESaIcEEEESaIS9_EED2Ev@Base 0.2.7025~beta20.1
 _ZNSt6vectorIbSaIbEE14_M_fill_insertESt13_Bit_iteratorjb@Base 0.2.7025~beta20.1
 _ZNSt6vectorIcSaIcEE15_M_range_insertIN9__gnu_cxx17__normal_iteratorIPcNSt7__cxx1112basic_stringIcSt11char_traitsIcES0_EEEEEEvNS4_IS5_S1_EET_SD_St20forward_iterator_tag@Base 0.2.7025~beta20.1
 _ZNSt6vectorIcSaIcEE15_M_range_insertIPKhEEvN9__gnu_cxx17__normal_iteratorIPcS1_EET_S9_St20forward_iterator_tag@Base 0.2.7025~beta20.1
 _ZNSt6vectorIcSaIcEE17_M_default_appendEj@Base 0.2.7025~beta20.1
 _ZNSt6vectorIcSaIcEE6resizeEj@Base 0.2.7025~beta20.1
 _ZNSt6vectorIcSaIcEE7reserveEj@Base 0.2.7025~beta20.1
 _ZNSt6vectorIfSaIfEE14_M_fill_assignEjRKf@Base 0.2.7025~beta20.1
 _ZNSt6vectorIfSaIfEE14_M_fill_insertEN9__gnu_cxx17__normal_iteratorIPfS1_EEjRKf@Base 0.2.7025~beta20.1
 _ZNSt6vectorIfSaIfEE17_M_default_appendEj@Base 0.2.7025~beta20.1
 _ZNSt6vectorIfSaIfEE19_M_emplace_back_auxIJfEEEvDpOT_@Base 0.2.7025~beta20.1
 _ZNSt6vectorIhSaIhEE14_M_fill_assignEjRKh@Base 0.2.7025~beta20.1
 _ZNSt6vectorIhSaIhEE14_M_fill_insertEN9__gnu_cxx17__normal_iteratorIPhS1_EEjRKh@Base 0.2.7025~beta20.1
 _ZNSt6vectorIhSaIhEE17_M_default_appendEj@Base 0.2.7025~beta20.1
 _ZNSt6vectorIiSaIiEE14_M_fill_assignEjRKi@Base 0.2.7025~beta20.1
 _ZNSt6vectorIiSaIiEE19_M_emplace_back_auxIJRKiEEEvDpOT_@Base 0.2.7025~beta20.1
 _ZNSt6vectorIjSaIjEE12emplace_backIJjEEEvDpOT_@Base 0.2.7025~beta20.1
 _ZNSt6vectorIjSaIjEE14_M_fill_insertEN9__gnu_cxx17__normal_iteratorIPjS1_EEjRKj@Base 0.2.7025~beta20.1
 _ZNSt6vectorIjSaIjEE19_M_emplace_back_auxIJRKjEEEvDpOT_@Base 0.2.7025~beta20.1
 _ZNSt6vectorIjSaIjEE19_M_emplace_back_auxIJjEEEvDpOT_@Base 0.2.7025~beta20.1
 _ZNSt6vectorIjSaIjEE7reserveEj@Base 0.2.7025~beta20.1
 _ZNSt6vectorIjSaIjEEaSERKS1_@Base 0.2.7025~beta20.1
 _ZNSt6vectorItSaItEE17_M_default_appendEj@Base 0.2.7025~beta20.1
 _ZNSt6vectorItSaItEE19_M_emplace_back_auxIJRKtEEEvDpOT_@Base 0.2.7025~beta20.1
 _ZNSt7__cxx1115basic_stringbufIcSt11char_traitsIcESaIcEED0Ev@Base 0.2.7025~beta20.1
 _ZNSt7__cxx1115basic_stringbufIcSt11char_traitsIcESaIcEED1Ev@Base 0.2.7025~beta20.1
 _ZNSt7__cxx1115basic_stringbufIcSt11char_traitsIcESaIcEED2Ev@Base 0.2.7025~beta20.1
 _ZNSt8_Rb_treeINSt7__cxx1112basic_stringIcSt11char_traitsIcESaIcEEES5_St9_IdentityIS5_ESt4lessIS5_ESaIS5_EE16_M_insert_uniqueIRKS5_EESt4pairISt17_Rb_tree_iteratorIS5_EbEOT_@Base 0.2.7025~beta20.1
 _ZNSt8_Rb_treeINSt7__cxx1112basic_stringIcSt11char_traitsIcESaIcEEES5_St9_IdentityIS5_ESt4lessIS5_ESaIS5_EE4findERKS5_@Base 0.2.7025~beta20.1
 _ZNSt8_Rb_treeINSt7__cxx1112basic_stringIcSt11char_traitsIcESaIcEEES5_St9_IdentityIS5_ESt4lessIS5_ESaIS5_EE8_M_eraseEPSt13_Rb_tree_nodeIS5_E@Base 0.2.7025~beta20.1
 _ZNSt8_Rb_treeINSt7__cxx1112basic_stringIcSt11char_traitsIcESaIcEEESt4pairIKS5_S5_ESt10_Select1stIS8_ESt4lessIS5_ESaIS8_EE24_M_get_insert_unique_posERS7_@Base 0.2.7025~beta20.1
 _ZNSt8_Rb_treeINSt7__cxx1112basic_stringIcSt11char_traitsIcESaIcEEESt4pairIKS5_S5_ESt10_Select1stIS8_ESt4lessIS5_ESaIS8_EE5eraseERS7_@Base 0.2.7025~beta20.1
 _ZNSt8_Rb_treeINSt7__cxx1112basic_stringIcSt11char_traitsIcESaIcEEESt4pairIKS5_S5_ESt10_Select1stIS8_ESt4lessIS5_ESaIS8_EE8_M_eraseEPSt13_Rb_tree_nodeIS8_E@Base 0.2.7025~beta20.1
 _ZNSt8_Rb_treeISt4pairIhtES0_IKS1_tESt10_Select1stIS3_ESt4lessIS1_ESaIS3_EE24_M_get_insert_unique_posERS2_@Base 0.2.7025~beta20.1
 _ZNSt8_Rb_treeISt4pairIhtES0_IKS1_tESt10_Select1stIS3_ESt4lessIS1_ESaIS3_EE8_M_eraseEPSt13_Rb_tree_nodeIS3_E@Base 0.2.7025~beta20.1
 _ZNSt8_Rb_treeIdSt4pairIKdiESt10_Select1stIS2_ESt4lessIdESaIS2_EE24_M_get_insert_unique_posERS1_@Base 0.2.7025~beta20.1
 _ZNSt8_Rb_treeIdSt4pairIKdiESt10_Select1stIS2_ESt4lessIdESaIS2_EE8_M_eraseEPSt13_Rb_tree_nodeIS2_E@Base 0.2.7025~beta20.1
 _ZNSt8_Rb_treeIsSt4pairIKsNSt7__cxx1112basic_stringIcSt11char_traitsIcESaIcEEEESt10_Select1stIS8_ESt4lessIsESaIS8_EE24_M_get_insert_unique_posERS1_@Base 0.2.7025~beta20.1
 _ZNSt8_Rb_treeIsSt4pairIKsNSt7__cxx1112basic_stringIcSt11char_traitsIcESaIcEEEESt10_Select1stIS8_ESt4lessIsESaIS8_EE7_M_copyINSE_20_Reuse_or_alloc_nodeEEEPSt13_Rb_tree_nodeIS8_EPKSI_PSt18_Rb_tree_node_baseRT_@Base 0.2.7025~beta20.1
 _ZNSt8_Rb_treeIsSt4pairIKsNSt7__cxx1112basic_stringIcSt11char_traitsIcESaIcEEEESt10_Select1stIS8_ESt4lessIsESaIS8_EE8_M_eraseEPSt13_Rb_tree_nodeIS8_E@Base 0.2.7025~beta20.1
 _ZNSt8_Rb_treeItSt4pairIKtNSt7__cxx1112basic_stringIcSt11char_traitsIcESaIcEEEESt10_Select1stIS8_ESt4lessItESaIS8_EE24_M_get_insert_unique_posERS1_@Base 0.2.7025~beta20.1
 _ZNSt8_Rb_treeItSt4pairIKtNSt7__cxx1112basic_stringIcSt11char_traitsIcESaIcEEEESt10_Select1stIS8_ESt4lessItESaIS8_EE8_M_eraseEPSt13_Rb_tree_nodeIS8_E@Base 0.2.7025~beta20.1
 _ZNSt8_Rb_treeIttSt9_IdentityItESt4lessItESaItEE8_M_eraseEPSt13_Rb_tree_nodeItE@Base 0.2.7025~beta20.1
 _ZNSt8seed_seq8generateIPjEEvT_S2_@Base 0.2.7025~beta20.1
 _ZNSt8seed_seqC1IPKjEET_S3_@Base 0.2.7025~beta20.1
 _ZNSt8seed_seqC2IPKjEET_S3_@Base 0.2.7025~beta20.1
 _ZSteqIcEN9__gnu_cxx11__enable_ifIXsrSt9__is_charIT_E7__valueEbE6__typeERKNSt7__cxx1112basic_stringIS3_St11char_traitsIS3_ESaIS3_EEESE_@Base 0.2.7025~beta20.1
 _ZStplIcSt11char_traitsIcESaIcEENSt7__cxx1112basic_stringIT_T0_T1_EEOS8_S9_@Base 0.2.7025~beta20.1
 _ZStplIcSt11char_traitsIcESaIcEENSt7__cxx1112basic_stringIT_T0_T1_EEPKS5_RKS8_@Base 0.2.7025~beta20.1
 _ZTIN7openmpt10module_extE@Base 0.2.7025~beta20.1
 _ZTIN7openmpt6moduleE@Base 0.2.7025~beta20.1
 _ZTIN7openmpt9exceptionE@Base 0.2.7025~beta20.1
 _ZTIN9__gnu_cxx7__mutexE@Base 0.2.7386~beta20.3-3+deb9u2
 _ZTISt11_Mutex_baseILN9__gnu_cxx12_Lock_policyE1EE@Base 0.2.7386~beta20.3-3+deb9u2
 _ZTISt16_Sp_counted_baseILN9__gnu_cxx12_Lock_policyE1EE@Base 0.2.7386~beta20.3-3+deb9u2
 _ZTISt19_Sp_make_shared_tag@Base 0.2.7025~beta20.1
 _ZTSN7openmpt10module_extE@Base 0.2.7025~beta20.1
 _ZTSN7openmpt6moduleE@Base 0.2.7025~beta20.1
 _ZTSN7openmpt9exceptionE@Base 0.2.7025~beta20.1
 _ZTSN9__gnu_cxx7__mutexE@Base 0.2.7386~beta20.3-3+deb9u2
 _ZTSSt11_Mutex_baseILN9__gnu_cxx12_Lock_policyE1EE@Base 0.2.7386~beta20.3-3+deb9u2
 _ZTSSt16_Sp_counted_baseILN9__gnu_cxx12_Lock_policyE1EE@Base 0.2.7386~beta20.3-3+deb9u2
 _ZTSSt19_Sp_make_shared_tag@Base 0.2.7025~beta20.1
 _ZTVN7openmpt10module_extE@Base 0.2.7025~beta20.1
 _ZTVN7openmpt6moduleE@Base 0.2.7025~beta20.1
 _ZTVN7openmpt9exceptionE@Base 0.2.7025~beta20.1
 openmpt_could_open_propability@Base 0.2.7025~beta20.1
 openmpt_free_string@Base 0.2.7025~beta20.1
 openmpt_get_core_version@Base 0.2.7025~beta20.1
 openmpt_get_library_version@Base 0.2.7025~beta20.1
 openmpt_get_string@Base 0.2.7025~beta20.1
 openmpt_get_supported_extensions@Base 0.2.7025~beta20.1
 openmpt_is_extension_supported@Base 0.2.7025~beta20.1
 openmpt_log_func_default@Base 0.2.7025~beta20.1
 openmpt_log_func_silent@Base 0.2.7025~beta20.1
 openmpt_module_create@Base 0.2.7025~beta20.1
 openmpt_module_create_from_memory@Base 0.2.7025~beta20.1
 openmpt_module_ctl_get@Base 0.2.7025~beta20.1
 openmpt_module_ctl_set@Base 0.2.7025~beta20.1
 openmpt_module_destroy@Base 0.2.7025~beta20.1
 openmpt_module_format_pattern_row_channel@Base 0.2.7025~beta20.1
 openmpt_module_format_pattern_row_channel_command@Base 0.2.7025~beta20.1
 openmpt_module_get_channel_name@Base 0.2.7025~beta20.1
 openmpt_module_get_ctls@Base 0.2.7025~beta20.1
 openmpt_module_get_current_channel_vu_left@Base 0.2.7025~beta20.1
 openmpt_module_get_current_channel_vu_mono@Base 0.2.7025~beta20.1
 openmpt_module_get_current_channel_vu_rear_left@Base 0.2.7025~beta20.1
 openmpt_module_get_current_channel_vu_rear_right@Base 0.2.7025~beta20.1
 openmpt_module_get_current_channel_vu_right@Base 0.2.7025~beta20.1
 openmpt_module_get_current_order@Base 0.2.7025~beta20.1
 openmpt_module_get_current_pattern@Base 0.2.7025~beta20.1
 openmpt_module_get_current_playing_channels@Base 0.2.7025~beta20.1
 openmpt_module_get_current_row@Base 0.2.7025~beta20.1
 openmpt_module_get_current_speed@Base 0.2.7025~beta20.1
 openmpt_module_get_current_tempo@Base 0.2.7025~beta20.1
 openmpt_module_get_duration_seconds@Base 0.2.7025~beta20.1
 openmpt_module_get_instrument_name@Base 0.2.7025~beta20.1
 openmpt_module_get_metadata@Base 0.2.7025~beta20.1
 openmpt_module_get_metadata_keys@Base 0.2.7025~beta20.1
 openmpt_module_get_num_channels@Base 0.2.7025~beta20.1
 openmpt_module_get_num_instruments@Base 0.2.7025~beta20.1
 openmpt_module_get_num_orders@Base 0.2.7025~beta20.1
 openmpt_module_get_num_patterns@Base 0.2.7025~beta20.1
 openmpt_module_get_num_samples@Base 0.2.7025~beta20.1
 openmpt_module_get_num_subsongs@Base 0.2.7025~beta20.1
 openmpt_module_get_order_name@Base 0.2.7025~beta20.1
 openmpt_module_get_order_pattern@Base 0.2.7025~beta20.1
 openmpt_module_get_pattern_name@Base 0.2.7025~beta20.1
 openmpt_module_get_pattern_num_rows@Base 0.2.7025~beta20.1
 openmpt_module_get_pattern_row_channel_command@Base 0.2.7025~beta20.1
 openmpt_module_get_position_seconds@Base 0.2.7025~beta20.1
 openmpt_module_get_render_param@Base 0.2.7025~beta20.1
 openmpt_module_get_repeat_count@Base 0.2.7025~beta20.1
 openmpt_module_get_sample_name@Base 0.2.7025~beta20.1
 openmpt_module_get_subsong_name@Base 0.2.7025~beta20.1
 openmpt_module_highlight_pattern_row_channel@Base 0.2.7025~beta20.1
 openmpt_module_highlight_pattern_row_channel_command@Base 0.2.7025~beta20.1
 openmpt_module_read_float_mono@Base 0.2.7025~beta20.1
 openmpt_module_read_float_quad@Base 0.2.7025~beta20.1
 openmpt_module_read_float_stereo@Base 0.2.7025~beta20.1
 openmpt_module_read_interleaved_float_quad@Base 0.2.7025~beta20.1
 openmpt_module_read_interleaved_float_stereo@Base 0.2.7025~beta20.1
 openmpt_module_read_interleaved_quad@Base 0.2.7025~beta20.1
 openmpt_module_read_interleaved_stereo@Base 0.2.7025~beta20.1
 openmpt_module_read_mono@Base 0.2.7025~beta20.1
 openmpt_module_read_quad@Base 0.2.7025~beta20.1
 openmpt_module_read_stereo@Base 0.2.7025~beta20.1
 openmpt_module_select_subsong@Base 0.2.7025~beta20.1
 openmpt_module_set_position_order_row@Base 0.2.7025~beta20.1
 openmpt_module_set_position_seconds@Base 0.2.7025~beta20.1
 openmpt_module_set_render_param@Base 0.2.7025~beta20.1
 openmpt_module_set_repeat_count@Base 0.2.7025~beta20.1
